; Function Attrs: mustprogress uwtable
define { i64, i64 } @_ZN2cv6detail12AffineWarper7warpRoiENS_5Size_IiEERKNS_11_InputArrayES6_(ptr noundef nonnull align 8 dereferenceable(168) %0, i64 %1, ptr noundef nonnull align 8 dereferenceable(24) %2, ptr noundef nonnull align 8 dereferenceable(24) %3) unnamed_addr #3 align 2 personality ptr @__gxx_personality_v0 {
  %5 = alloca %"class.cv::Point_.52", align 4
  %6 = alloca %"class.cv::Point_.52", align 4
  %7 = alloca %"class.cv::Mat", align 8
  %8 = alloca %"class.cv::Mat", align 8
  %9 = alloca %"class.cv::_InputArray", align 8
  %10 = alloca %"class.cv::_InputArray", align 8
  call void @llvm.lifetime.start.p0(i64 96, ptr nonnull %7) #22
  call void @_ZN2cv3MatC1Ev(ptr noundef nonnull align 8 dereferenceable(96) %7) #22
  call void @llvm.lifetime.start.p0(i64 96, ptr nonnull %8) #22
  call void @_ZN2cv3MatC1Ev(ptr noundef nonnull align 8 dereferenceable(96) %8) #22
  invoke void @_ZN2cv6detail12AffineWarper20getRTfromHomogeneousERKNS_11_InputArrayERNS_3MatES6_(ptr nonnull align 8 poison, ptr noundef nonnull align 8 dereferenceable(24) %3, ptr noundef nonnull align 8 dereferenceable(96) %7, ptr noundef nonnull align 8 dereferenceable(96) %8)
          to label %11 unwind label %37

11:                                               ; preds = %4
  call void @llvm.lifetime.start.p0(i64 24, ptr nonnull %9) #22
  %12 = getelementptr inbounds nuw i8, ptr %9, i64 16
  store i32 0, ptr %12, align 8, !tbaa !203
  %13 = getelementptr inbounds nuw i8, ptr %9, i64 20
  store i32 0, ptr %13, align 4, !tbaa !204
  store i32 16842752, ptr %9, align 8, !tbaa !205
  %14 = getelementptr inbounds nuw i8, ptr %9, i64 8
  store ptr %7, ptr %14, align 8, !tbaa !160
  call void @llvm.lifetime.start.p0(i64 24, ptr nonnull %10) #22
  %15 = getelementptr inbounds nuw i8, ptr %10, i64 16
  store i32 0, ptr %15, align 8, !tbaa !203
  %16 = getelementptr inbounds nuw i8, ptr %10, i64 20
  store i32 0, ptr %16, align 4, !tbaa !204
  store i32 16842752, ptr %10, align 8, !tbaa !205
  %17 = getelementptr inbounds nuw i8, ptr %10, i64 8
  store ptr %8, ptr %17, align 8, !tbaa !160
  %18 = getelementptr inbounds nuw i8, ptr %0, i64 8
  invoke void @_ZN2cv6detail13ProjectorBase15setCameraParamsERKNS_11_InputArrayES4_S4_(ptr noundef nonnull align 4 dereferenceable(160) %18, ptr noundef nonnull align 8 dereferenceable(24) %2, ptr noundef nonnull align 8 dereferenceable(24) %9, ptr noundef nonnull align 8 dereferenceable(24) %10)
          to label %.noexc unwind label %39

.noexc:                                           ; preds = %11
  call void @llvm.lifetime.start.p0(i64 8, ptr nonnull %5) #22
  store i32 0, ptr %5, align 4, !tbaa !206
  %19 = getelementptr inbounds nuw i8, ptr %5, i64 4
  store i32 0, ptr %19, align 4, !tbaa !208
  call void @llvm.lifetime.start.p0(i64 8, ptr nonnull %6) #22
  store i32 0, ptr %6, align 4, !tbaa !206
  %20 = getelementptr inbounds nuw i8, ptr %6, i64 4
  store i32 0, ptr %20, align 4, !tbaa !208
  %21 = load ptr, ptr %0, align 8, !tbaa !14
  %22 = getelementptr inbounds nuw i8, ptr %21, i64 80
  %23 = load ptr, ptr %22, align 8
  invoke void %23(ptr noundef nonnull align 8 dereferenceable(168) %0, i64 %1, ptr noundef nonnull align 4 dereferenceable(8) %5, ptr noundef nonnull align 4 dereferenceable(8) %6)
          to label %24 unwind label %39

24:                                               ; preds = %.noexc
  %25 = load i32, ptr %6, align 4, !tbaa !206
  %26 = add nsw i32 %25, 1
  %27 = load i32, ptr %20, align 4, !tbaa !208
  %28 = add nsw i32 %27, 1
  %29 = load i32, ptr %5, align 4, !tbaa !23
  %30 = call i32 @llvm.smin.i32(i32 %26, i32 %29)
  %31 = load i32, ptr %19, align 4, !tbaa !23
  %32 = call i32 @llvm.smin.i32(i32 %28, i32 %31)
  %33 = call i32 @llvm.smax.i32(i32 %29, i32 %26)
  %34 = sub nsw i32 %33, %30
  %35 = call i32 @llvm.smax.i32(i32 %31, i32 %28)
  %36 = sub nsw i32 %35, %32
  call void @llvm.lifetime.end.p0(i64 8, ptr nonnull %6) #22
  call void @llvm.lifetime.end.p0(i64 8, ptr nonnull %5) #22
  %.sroa.2.0.insert.ext.i = zext i32 %32 to i64
  %.sroa.2.0.insert.shift.i = shl nuw i64 %.sroa.2.0.insert.ext.i, 32
  %.sroa.07.0.insert.ext.i = zext i32 %30 to i64
  %.sroa.07.0.insert.insert.i = or disjoint i64 %.sroa.2.0.insert.shift.i, %.sroa.07.0.insert.ext.i
  %.fca.0.insert.i = insertvalue { i64, i64 } poison, i64 %.sroa.07.0.insert.insert.i, 0
  %.sroa.58.8.insert.ext.i = zext i32 %36 to i64
  %.sroa.58.8.insert.shift.i = shl nuw i64 %.sroa.58.8.insert.ext.i, 32
  %.sroa.3.8.insert.ext.i = zext i32 %34 to i64
  %.sroa.3.8.insert.insert.i = or disjoint i64 %.sroa.58.8.insert.shift.i, %.sroa.3.8.insert.ext.i
  %.fca.1.insert.i = insertvalue { i64, i64 } %.fca.0.insert.i, i64 %.sroa.3.8.insert.insert.i, 1
  call void @llvm.lifetime.end.p0(i64 24, ptr nonnull %10) #22
  call void @llvm.lifetime.end.p0(i64 24, ptr nonnull %9) #22
  call void @_ZN2cv3MatD1Ev(ptr noundef nonnull align 8 dereferenceable(96) %8) #22
  call void @llvm.lifetime.end.p0(i64 96, ptr nonnull %8) #22
  call void @_ZN2cv3MatD1Ev(ptr noundef nonnull align 8 dereferenceable(96) %7) #22
  call void @llvm.lifetime.end.p0(i64 96, ptr nonnull %7) #22
  ret { i64, i64 } %.fca.1.insert.i

37:                                               ; preds = %4
  %38 = landingpad { ptr, i32 }
          cleanup
  br label %41

39:                                               ; preds = %.noexc, %11
  %40 = landingpad { ptr, i32 }
          cleanup
  call void @llvm.lifetime.end.p0(i64 24, ptr nonnull %10) #22
  call void @llvm.lifetime.end.p0(i64 24, ptr nonnull %9) #22
  br label %41

41:                                               ; preds = %39, %37
  %.pn.pn.pn = phi { ptr, i32 } [ %40, %39 ], [ %38, %37 ]
  call void @_ZN2cv3MatD1Ev(ptr noundef nonnull align 8 dereferenceable(96) %8) #22
  call void @llvm.lifetime.end.p0(i64 96, ptr nonnull %8) #22
  call void @_ZN2cv3MatD1Ev(ptr noundef nonnull align 8 dereferenceable(96) %7) #22
  call void @llvm.lifetime.end.p0(i64 96, ptr nonnull %7) #22
  resume { ptr, i32 } %.pn.pn.pn
}